---
triple:          'arm64-apple-darwin'
binary-path:     '/Users/jaskarankainth/LLD/LLD/Design-Patterns/AbstractFactory'
relocations:
  - { offsetInCU: 0x2DC7, offset: 0x2DC7, size: 0x8, addend: 0x0, symName: __ZNSt3__124__put_character_sequenceB7v160006IcNS_11char_traitsIcEEEERNS_13basic_ostreamIT_T0_EES7_PKS4_m, symObjAddr: 0x828, symBinAddr: 0x100002A90, symSize: 0x1F4 }
  - { offsetInCU: 0x46FE, offset: 0x46FE, size: 0x8, addend: 0x0, symName: __ZNSt3__1lsB7v160006INS_11char_traitsIcEEEERNS_13basic_ostreamIcT_EES6_PKc, symObjAddr: 0x198, symBinAddr: 0x100002400, symSize: 0x48 }
  - { offsetInCU: 0x4744, offset: 0x4744, size: 0x8, addend: 0x0, symName: __ZNSt3__14endlB7v160006IcNS_11char_traitsIcEEEERNS_13basic_ostreamIT_T0_EES7_, symObjAddr: 0x20C, symBinAddr: 0x100002474, symSize: 0x58 }
  - { offsetInCU: 0x4784, offset: 0x4784, size: 0x8, addend: 0x0, symName: __ZNSt3__1eqB7v160006IcNS_11char_traitsIcEENS_9allocatorIcEEEEbRKNS_12basic_stringIT_T0_T1_EEPKS6_, symObjAddr: 0x290, symBinAddr: 0x1000024F8, symSize: 0xC0 }
  - { offsetInCU: 0x47EB, offset: 0x47EB, size: 0x8, addend: 0x0, symName: __ZNSt3__116__pad_and_outputB7v160006IcNS_11char_traitsIcEEEENS_19ostreambuf_iteratorIT_T0_EES6_PKS4_S8_S8_RNS_8ios_baseES4_, symObjAddr: 0xA80, symBinAddr: 0x100002CE8, symSize: 0x248 }
  - { offsetInCU: 0x48BA, offset: 0x48BA, size: 0x8, addend: 0x0, symName: __ZNSt3__119__debug_db_insert_cB7v160006INS_12basic_stringIcNS_11char_traitsIcEENS_9allocatorIcEEEEEEvPT_, symObjAddr: 0xF3C, symBinAddr: 0x1000031A4, symSize: 0x10 }
  - { offsetInCU: 0x48EB, offset: 0x48EB, size: 0x8, addend: 0x0, symName: __ZNSt3__112__to_addressB7v160006IKcEEPT_S3_, symObjAddr: 0x1008, symBinAddr: 0x100003270, symSize: 0x14 }
  - { offsetInCU: 0x4920, offset: 0x4920, size: 0x8, addend: 0x0, symName: __ZNSt3__130__libcpp_is_constant_evaluatedB7v160006Ev, symObjAddr: 0x1134, symBinAddr: 0x10000339C, symSize: 0xC }
  - { offsetInCU: 0x4970, offset: 0x4970, size: 0x8, addend: 0x0, symName: __ZNSt3__19use_facetB7v160006INS_5ctypeIcEEEERKT_RKNS_6localeE, symObjAddr: 0x12EC, symBinAddr: 0x100003554, symSize: 0x2C }
  - { offsetInCU: 0x4E3F, offset: 0x4E3F, size: 0x8, addend: 0x0, symName: __ZNSt3__118__constexpr_strlenB7v160006EPKc, symObjAddr: 0x1384, symBinAddr: 0x1000035EC, symSize: 0x24 }
  - { offsetInCU: 0x4E6B, offset: 0x4E6B, size: 0x8, addend: 0x0, symName: __ZNSt3__117__libcpp_allocateB7v160006Emm, symObjAddr: 0x17AC, symBinAddr: 0x100003A14, symSize: 0x28 }
  - { offsetInCU: 0x4EA8, offset: 0x4EA8, size: 0x8, addend: 0x0, symName: __ZNSt3__121__libcpp_operator_newB7v160006IJmEEEPvDpT_, symObjAddr: 0x17E8, symBinAddr: 0x100003A50, symSize: 0x24 }
  - { offsetInCU: 0x4EE2, offset: 0x4EE2, size: 0x8, addend: 0x0, symName: __ZSt28__throw_bad_array_new_lengthB7v160006v, symObjAddr: 0x1778, symBinAddr: 0x1000039E0, symSize: 0x34 }
  - { offsetInCU: 0x7352, offset: 0x7352, size: 0x8, addend: 0x0, symName: _main, symObjAddr: 0x0, symBinAddr: 0x100002268, symSize: 0x16C }
  - { offsetInCU: 0x73A4, offset: 0x73A4, size: 0x8, addend: 0x0, symName: __ZNSt3__112basic_stringIcNS_11char_traitsIcEENS_9allocatorIcEEEC1B7v160006Ev, symObjAddr: 0x16C, symBinAddr: 0x1000023D4, symSize: 0x2C }
  - { offsetInCU: 0x73CC, offset: 0x73CC, size: 0x8, addend: 0x0, symName: __ZNSt3__113basic_ostreamIcNS_11char_traitsIcEEElsB7v160006EPFRS3_S4_E, symObjAddr: 0x1E0, symBinAddr: 0x100002448, symSize: 0x2C }
  - { offsetInCU: 0x73FE, offset: 0x73FE, size: 0x8, addend: 0x0, symName: __ZNSt3__112basic_stringIcNS_11char_traitsIcEENS_9allocatorIcEEEaSB7v160006EPKc, symObjAddr: 0x264, symBinAddr: 0x1000024CC, symSize: 0x2C }
  - { offsetInCU: 0x7588, offset: 0x7588, size: 0x8, addend: 0x0, symName: __ZN10winFactoryC1Ev, symObjAddr: 0x350, symBinAddr: 0x1000025B8, symSize: 0x2C }
  - { offsetInCU: 0x7614, offset: 0x7614, size: 0x8, addend: 0x0, symName: __ZN10macFactoryC1Ev, symObjAddr: 0x37C, symBinAddr: 0x1000025E4, symSize: 0x2C }
  - { offsetInCU: 0x763E, offset: 0x763E, size: 0x8, addend: 0x0, symName: __ZN10winFactoryC2Ev, symObjAddr: 0x3B4, symBinAddr: 0x10000261C, symSize: 0x44 }
  - { offsetInCU: 0x7669, offset: 0x7669, size: 0x8, addend: 0x0, symName: __ZN7FactoryC2Ev, symObjAddr: 0x3F8, symBinAddr: 0x100002660, symSize: 0x24 }
  - { offsetInCU: 0x7692, offset: 0x7692, size: 0x8, addend: 0x0, symName: __ZN10winFactory12createButtonEv, symObjAddr: 0x41C, symBinAddr: 0x100002684, symSize: 0x34 }
  - { offsetInCU: 0x76B6, offset: 0x76B6, size: 0x8, addend: 0x0, symName: __ZN10winFactory11createPanelEv, symObjAddr: 0x450, symBinAddr: 0x1000026B8, symSize: 0x34 }
  - { offsetInCU: 0x771A, offset: 0x771A, size: 0x8, addend: 0x0, symName: __ZN9winButtonC1Ev, symObjAddr: 0x484, symBinAddr: 0x1000026EC, symSize: 0x2C }
  - { offsetInCU: 0x7744, offset: 0x7744, size: 0x8, addend: 0x0, symName: __ZN9winButtonC2Ev, symObjAddr: 0x4B0, symBinAddr: 0x100002718, symSize: 0x44 }
  - { offsetInCU: 0x776F, offset: 0x776F, size: 0x8, addend: 0x0, symName: __ZN6ButtonC2Ev, symObjAddr: 0x4F4, symBinAddr: 0x10000275C, symSize: 0x24 }
  - { offsetInCU: 0x7798, offset: 0x7798, size: 0x8, addend: 0x0, symName: __ZN9winButton3funEv, symObjAddr: 0x518, symBinAddr: 0x100002780, symSize: 0x3C }
  - { offsetInCU: 0x77FC, offset: 0x77FC, size: 0x8, addend: 0x0, symName: __ZN8winPanelC1Ev, symObjAddr: 0x554, symBinAddr: 0x1000027BC, symSize: 0x2C }
  - { offsetInCU: 0x7826, offset: 0x7826, size: 0x8, addend: 0x0, symName: __ZN8winPanelC2Ev, symObjAddr: 0x580, symBinAddr: 0x1000027E8, symSize: 0x44 }
  - { offsetInCU: 0x7851, offset: 0x7851, size: 0x8, addend: 0x0, symName: __ZN5PanelC2Ev, symObjAddr: 0x5C4, symBinAddr: 0x10000282C, symSize: 0x24 }
  - { offsetInCU: 0x787A, offset: 0x787A, size: 0x8, addend: 0x0, symName: __ZN8winPanel3funEv, symObjAddr: 0x5E8, symBinAddr: 0x100002850, symSize: 0x3C }
  - { offsetInCU: 0x789E, offset: 0x789E, size: 0x8, addend: 0x0, symName: __ZN10macFactoryC2Ev, symObjAddr: 0x624, symBinAddr: 0x10000288C, symSize: 0x44 }
  - { offsetInCU: 0x78C8, offset: 0x78C8, size: 0x8, addend: 0x0, symName: __ZN10macFactory12createButtonEv, symObjAddr: 0x668, symBinAddr: 0x1000028D0, symSize: 0x34 }
  - { offsetInCU: 0x78EC, offset: 0x78EC, size: 0x8, addend: 0x0, symName: __ZN10macFactory11createPanelEv, symObjAddr: 0x69C, symBinAddr: 0x100002904, symSize: 0x34 }
  - { offsetInCU: 0x7950, offset: 0x7950, size: 0x8, addend: 0x0, symName: __ZN9macButtonC1Ev, symObjAddr: 0x6D0, symBinAddr: 0x100002938, symSize: 0x2C }
  - { offsetInCU: 0x797A, offset: 0x797A, size: 0x8, addend: 0x0, symName: __ZN9macButtonC2Ev, symObjAddr: 0x6FC, symBinAddr: 0x100002964, symSize: 0x44 }
  - { offsetInCU: 0x79A4, offset: 0x79A4, size: 0x8, addend: 0x0, symName: __ZN9macButton3funEv, symObjAddr: 0x740, symBinAddr: 0x1000029A8, symSize: 0x3C }
  - { offsetInCU: 0x7A08, offset: 0x7A08, size: 0x8, addend: 0x0, symName: __ZN8macPanelC1Ev, symObjAddr: 0x77C, symBinAddr: 0x1000029E4, symSize: 0x2C }
  - { offsetInCU: 0x7A32, offset: 0x7A32, size: 0x8, addend: 0x0, symName: __ZN8macPanelC2Ev, symObjAddr: 0x7A8, symBinAddr: 0x100002A10, symSize: 0x44 }
  - { offsetInCU: 0x7A5C, offset: 0x7A5C, size: 0x8, addend: 0x0, symName: __ZN8macPanel3funEv, symObjAddr: 0x7EC, symBinAddr: 0x100002A54, symSize: 0x3C }
  - { offsetInCU: 0x7A81, offset: 0x7A81, size: 0x8, addend: 0x0, symName: __ZNSt3__111char_traitsIcE6lengthEPKc, symObjAddr: 0xA1C, symBinAddr: 0x100002C84, symSize: 0x48 }
  - { offsetInCU: 0x7AC2, offset: 0x7AC2, size: 0x8, addend: 0x0, symName: __ZNKSt3__113basic_ostreamIcNS_11char_traitsIcEEE6sentrycvbB7v160006Ev, symObjAddr: 0xA64, symBinAddr: 0x100002CCC, symSize: 0x1C }
  - { offsetInCU: 0x7AE6, offset: 0x7AE6, size: 0x8, addend: 0x0, symName: __ZNSt3__119ostreambuf_iteratorIcNS_11char_traitsIcEEEC1B7v160006ERNS_13basic_ostreamIcS2_EE, symObjAddr: 0xCC8, symBinAddr: 0x100002F30, symSize: 0x34 }
  - { offsetInCU: 0x7B1D, offset: 0x7B1D, size: 0x8, addend: 0x0, symName: __ZNKSt3__18ios_base5flagsB7v160006Ev, symObjAddr: 0xCFC, symBinAddr: 0x100002F64, symSize: 0x18 }
  - { offsetInCU: 0x7B44, offset: 0x7B44, size: 0x8, addend: 0x0, symName: __ZNKSt3__19basic_iosIcNS_11char_traitsIcEEE4fillB7v160006Ev, symObjAddr: 0xD14, symBinAddr: 0x100002F7C, symSize: 0x64 }
  - { offsetInCU: 0x7B6B, offset: 0x7B6B, size: 0x8, addend: 0x0, symName: __ZNKSt3__119ostreambuf_iteratorIcNS_11char_traitsIcEEE6failedB7v160006Ev, symObjAddr: 0xD78, symBinAddr: 0x100002FE0, symSize: 0x24 }
  - { offsetInCU: 0x7B8F, offset: 0x7B8F, size: 0x8, addend: 0x0, symName: __ZNSt3__19basic_iosIcNS_11char_traitsIcEEE8setstateB7v160006Ej, symObjAddr: 0xD9C, symBinAddr: 0x100003004, symSize: 0x2C }
  - { offsetInCU: 0x7BC3, offset: 0x7BC3, size: 0x8, addend: 0x0, symName: __ZNKSt3__18ios_base5widthB7v160006Ev, symObjAddr: 0xDC8, symBinAddr: 0x100003030, symSize: 0x18 }
  - { offsetInCU: 0x7BE9, offset: 0x7BE9, size: 0x8, addend: 0x0, symName: __ZNSt3__115basic_streambufIcNS_11char_traitsIcEEE5sputnB7v160006EPKcl, symObjAddr: 0xDE0, symBinAddr: 0x100003048, symSize: 0x3C }
  - { offsetInCU: 0x7C29, offset: 0x7C29, size: 0x8, addend: 0x0, symName: __ZNSt3__112basic_stringIcNS_11char_traitsIcEENS_9allocatorIcEEEC1B7v160006Emc, symObjAddr: 0xE1C, symBinAddr: 0x100003084, symSize: 0x3C }
  - { offsetInCU: 0x7C6F, offset: 0x7C6F, size: 0x8, addend: 0x0, symName: __ZNKSt3__112basic_stringIcNS_11char_traitsIcEENS_9allocatorIcEEE4dataB7v160006Ev, symObjAddr: 0xE58, symBinAddr: 0x1000030C0, symSize: 0x28 }
  - { offsetInCU: 0x7C94, offset: 0x7C94, size: 0x8, addend: 0x0, symName: __ZNSt3__18ios_base5widthB7v160006El, symObjAddr: 0xE80, symBinAddr: 0x1000030E8, symSize: 0x2C }
  - { offsetInCU: 0x7CD8, offset: 0x7CD8, size: 0x8, addend: 0x0, symName: __ZNSt3__112basic_stringIcNS_11char_traitsIcEENS_9allocatorIcEEEC2B7v160006Emc, symObjAddr: 0xEAC, symBinAddr: 0x100003114, symSize: 0x54 }
  - { offsetInCU: 0x7D23, offset: 0x7D23, size: 0x8, addend: 0x0, symName: __ZNSt3__117__compressed_pairINS_12basic_stringIcNS_11char_traitsIcEENS_9allocatorIcEEE5__repES5_EC1B7v160006INS_18__default_init_tagESA_EEOT_OT0_, symObjAddr: 0xF00, symBinAddr: 0x100003168, symSize: 0x3C }
  - { offsetInCU: 0x7D79, offset: 0x7D79, size: 0x8, addend: 0x0, symName: __ZNSt3__117__compressed_pairINS_12basic_stringIcNS_11char_traitsIcEENS_9allocatorIcEEE5__repES5_EC2B7v160006INS_18__default_init_tagESA_EEOT_OT0_, symObjAddr: 0xF4C, symBinAddr: 0x1000031B4, symSize: 0x3C }
  - { offsetInCU: 0x7DD0, offset: 0x7DD0, size: 0x8, addend: 0x0, symName: __ZNSt3__122__compressed_pair_elemINS_12basic_stringIcNS_11char_traitsIcEENS_9allocatorIcEEE5__repELi0ELb0EEC2B7v160006ENS_18__default_init_tagE, symObjAddr: 0xF88, symBinAddr: 0x1000031F0, symSize: 0x14 }
  - { offsetInCU: 0x7E03, offset: 0x7E03, size: 0x8, addend: 0x0, symName: __ZNSt3__122__compressed_pair_elemINS_9allocatorIcEELi1ELb1EEC2B7v160006ENS_18__default_init_tagE, symObjAddr: 0xF9C, symBinAddr: 0x100003204, symSize: 0x2C }
  - { offsetInCU: 0x7E36, offset: 0x7E36, size: 0x8, addend: 0x0, symName: __ZNSt3__19allocatorIcEC2B7v160006Ev, symObjAddr: 0xFC8, symBinAddr: 0x100003230, symSize: 0x2C }
  - { offsetInCU: 0x7E5F, offset: 0x7E5F, size: 0x8, addend: 0x0, symName: __ZNSt3__116__non_trivial_ifILb1ENS_9allocatorIcEEEC2B7v160006Ev, symObjAddr: 0xFF4, symBinAddr: 0x10000325C, symSize: 0x14 }
  - { offsetInCU: 0x7E87, offset: 0x7E87, size: 0x8, addend: 0x0, symName: __ZNKSt3__112basic_stringIcNS_11char_traitsIcEENS_9allocatorIcEEE13__get_pointerB7v160006Ev, symObjAddr: 0x101C, symBinAddr: 0x100003284, symSize: 0x54 }
  - { offsetInCU: 0x7EAB, offset: 0x7EAB, size: 0x8, addend: 0x0, symName: __ZNKSt3__112basic_stringIcNS_11char_traitsIcEENS_9allocatorIcEEE9__is_longB7v160006Ev, symObjAddr: 0x1070, symBinAddr: 0x1000032D8, symSize: 0x74 }
  - { offsetInCU: 0x7ECF, offset: 0x7ECF, size: 0x8, addend: 0x0, symName: __ZNKSt3__112basic_stringIcNS_11char_traitsIcEENS_9allocatorIcEEE18__get_long_pointerB7v160006Ev, symObjAddr: 0x10E4, symBinAddr: 0x10000334C, symSize: 0x28 }
  - { offsetInCU: 0x7EF3, offset: 0x7EF3, size: 0x8, addend: 0x0, symName: __ZNKSt3__112basic_stringIcNS_11char_traitsIcEENS_9allocatorIcEEE19__get_short_pointerB7v160006Ev, symObjAddr: 0x110C, symBinAddr: 0x100003374, symSize: 0x28 }
  - { offsetInCU: 0x7F17, offset: 0x7F17, size: 0x8, addend: 0x0, symName: __ZNKSt3__117__compressed_pairINS_12basic_stringIcNS_11char_traitsIcEENS_9allocatorIcEEE5__repES5_E5firstB7v160006Ev, symObjAddr: 0x1140, symBinAddr: 0x1000033A8, symSize: 0x24 }
  - { offsetInCU: 0x7F3C, offset: 0x7F3C, size: 0x8, addend: 0x0, symName: __ZNKSt3__122__compressed_pair_elemINS_12basic_stringIcNS_11char_traitsIcEENS_9allocatorIcEEE5__repELi0ELb0EE5__getB7v160006Ev, symObjAddr: 0x1164, symBinAddr: 0x1000033CC, symSize: 0x14 }
  - { offsetInCU: 0x7F61, offset: 0x7F61, size: 0x8, addend: 0x0, symName: __ZNSt3__114pointer_traitsIPKcE10pointer_toB7v160006ERS1_, symObjAddr: 0x1178, symBinAddr: 0x1000033E0, symSize: 0x14 }
  - { offsetInCU: 0x7F83, offset: 0x7F83, size: 0x8, addend: 0x0, symName: __ZNSt3__119ostreambuf_iteratorIcNS_11char_traitsIcEEEC2B7v160006ERNS_13basic_ostreamIcS2_EE, symObjAddr: 0x118C, symBinAddr: 0x1000033F4, symSize: 0x68 }
  - { offsetInCU: 0x7FBA, offset: 0x7FBA, size: 0x8, addend: 0x0, symName: __ZNKSt3__19basic_iosIcNS_11char_traitsIcEEE5rdbufB7v160006Ev, symObjAddr: 0x11F4, symBinAddr: 0x10000345C, symSize: 0x24 }
  - { offsetInCU: 0x7FE1, offset: 0x7FE1, size: 0x8, addend: 0x0, symName: __ZNKSt3__18ios_base5rdbufB7v160006Ev, symObjAddr: 0x1218, symBinAddr: 0x100003480, symSize: 0x18 }
  - { offsetInCU: 0x8006, offset: 0x8006, size: 0x8, addend: 0x0, symName: __ZNSt3__111char_traitsIcE11eq_int_typeEii, symObjAddr: 0x1230, symBinAddr: 0x100003498, symSize: 0x28 }
  - { offsetInCU: 0x8037, offset: 0x8037, size: 0x8, addend: 0x0, symName: __ZNSt3__111char_traitsIcE3eofEv, symObjAddr: 0x1258, symBinAddr: 0x1000034C0, symSize: 0x8 }
  - { offsetInCU: 0x804B, offset: 0x804B, size: 0x8, addend: 0x0, symName: __ZNKSt3__19basic_iosIcNS_11char_traitsIcEEE5widenB7v160006Ec, symObjAddr: 0x1260, symBinAddr: 0x1000034C8, symSize: 0x8C }
  - { offsetInCU: 0x80B7, offset: 0x80B7, size: 0x8, addend: 0x0, symName: __ZNKSt3__15ctypeIcE5widenB7v160006Ec, symObjAddr: 0x1318, symBinAddr: 0x100003580, symSize: 0x38 }
  - { offsetInCU: 0x80EB, offset: 0x80EB, size: 0x8, addend: 0x0, symName: __ZNSt3__18ios_base8setstateB7v160006Ej, symObjAddr: 0x1350, symBinAddr: 0x1000035B8, symSize: 0x34 }
  - { offsetInCU: 0x8120, offset: 0x8120, size: 0x8, addend: 0x0, symName: __ZNSt3__112basic_stringIcNS_11char_traitsIcEENS_9allocatorIcEEEC2B7v160006Ev, symObjAddr: 0x13A8, symBinAddr: 0x100003610, symSize: 0x44 }
  - { offsetInCU: 0x8148, offset: 0x8148, size: 0x8, addend: 0x0, symName: __ZNSt3__112basic_stringIcNS_11char_traitsIcEENS_9allocatorIcEEE14__default_initB7v160006Ev, symObjAddr: 0x13EC, symBinAddr: 0x100003654, symSize: 0xB0 }
  - { offsetInCU: 0x8199, offset: 0x8199, size: 0x8, addend: 0x0, symName: __ZNSt3__117__compressed_pairINS_12basic_stringIcNS_11char_traitsIcEENS_9allocatorIcEEE5__repES5_E5firstB7v160006Ev, symObjAddr: 0x149C, symBinAddr: 0x100003704, symSize: 0x24 }
  - { offsetInCU: 0x81BE, offset: 0x81BE, size: 0x8, addend: 0x0, symName: __ZNSt3__112basic_stringIcNS_11char_traitsIcEENS_9allocatorIcEEE11__recommendB7v160006Em, symObjAddr: 0x14C0, symBinAddr: 0x100003728, symSize: 0x9C }
  - { offsetInCU: 0x81F1, offset: 0x81F1, size: 0x8, addend: 0x0, symName: __ZNSt3__116allocator_traitsINS_9allocatorIcEEE8allocateB7v160006ERS2_m, symObjAddr: 0x155C, symBinAddr: 0x1000037C4, symSize: 0x2C }
  - { offsetInCU: 0x8223, offset: 0x8223, size: 0x8, addend: 0x0, symName: __ZNSt3__112basic_stringIcNS_11char_traitsIcEENS_9allocatorIcEEE7__allocB7v160006Ev, symObjAddr: 0x1588, symBinAddr: 0x1000037F0, symSize: 0x24 }
  - { offsetInCU: 0x8248, offset: 0x8248, size: 0x8, addend: 0x0, symName: __ZNSt3__112basic_stringIcNS_11char_traitsIcEENS_9allocatorIcEEE16__begin_lifetimeB7v160006EPcm, symObjAddr: 0x15AC, symBinAddr: 0x100003814, symSize: 0x14 }
  - { offsetInCU: 0x827A, offset: 0x827A, size: 0x8, addend: 0x0, symName: __ZNSt3__112basic_stringIcNS_11char_traitsIcEENS_9allocatorIcEEE18__set_long_pointerB7v160006EPc, symObjAddr: 0x15C0, symBinAddr: 0x100003828, symSize: 0x38 }
  - { offsetInCU: 0x82AD, offset: 0x82AD, size: 0x8, addend: 0x0, symName: __ZNSt3__112basic_stringIcNS_11char_traitsIcEENS_9allocatorIcEEE14__set_long_capB7v160006Em, symObjAddr: 0x15F8, symBinAddr: 0x100003860, symSize: 0x70 }
  - { offsetInCU: 0x82E0, offset: 0x82E0, size: 0x8, addend: 0x0, symName: __ZNSt3__112basic_stringIcNS_11char_traitsIcEENS_9allocatorIcEEE15__set_long_sizeB7v160006Em, symObjAddr: 0x1668, symBinAddr: 0x1000038D0, symSize: 0x38 }
  - { offsetInCU: 0x8314, offset: 0x8314, size: 0x8, addend: 0x0, symName: __ZNSt3__122__compressed_pair_elemINS_12basic_stringIcNS_11char_traitsIcEENS_9allocatorIcEEE5__repELi0ELb0EE5__getB7v160006Ev, symObjAddr: 0x16A0, symBinAddr: 0x100003908, symSize: 0x14 }
  - { offsetInCU: 0x8339, offset: 0x8339, size: 0x8, addend: 0x0, symName: __ZNSt3__112basic_stringIcNS_11char_traitsIcEENS_9allocatorIcEEE10__align_itB7v160006ILm16EEEmm, symObjAddr: 0x16B4, symBinAddr: 0x10000391C, symSize: 0x1C }
  - { offsetInCU: 0x8366, offset: 0x8366, size: 0x8, addend: 0x0, symName: __ZNSt3__19allocatorIcE8allocateB7v160006Em, symObjAddr: 0x16D0, symBinAddr: 0x100003938, symSize: 0x84 }
  - { offsetInCU: 0x83A3, offset: 0x83A3, size: 0x8, addend: 0x0, symName: __ZNSt3__116allocator_traitsINS_9allocatorIcEEE8max_sizeB7v160006IS2_vEEmRKS2_, symObjAddr: 0x1754, symBinAddr: 0x1000039BC, symSize: 0x24 }
  - { offsetInCU: 0x83D1, offset: 0x83D1, size: 0x8, addend: 0x0, symName: __ZNKSt3__19allocatorIcE8max_sizeB7v160006Ev, symObjAddr: 0x17D4, symBinAddr: 0x100003A3C, symSize: 0x14 }
  - { offsetInCU: 0x83F5, offset: 0x83F5, size: 0x8, addend: 0x0, symName: __ZNSt3__117__compressed_pairINS_12basic_stringIcNS_11char_traitsIcEENS_9allocatorIcEEE5__repES5_E6secondB7v160006Ev, symObjAddr: 0x180C, symBinAddr: 0x100003A74, symSize: 0x24 }
  - { offsetInCU: 0x841A, offset: 0x841A, size: 0x8, addend: 0x0, symName: __ZNSt3__122__compressed_pair_elemINS_9allocatorIcEELi1ELb1EE5__getB7v160006Ev, symObjAddr: 0x1830, symBinAddr: 0x100003A98, symSize: 0x14 }
  - { offsetInCU: 0x843E, offset: 0x843E, size: 0x8, addend: 0x0, symName: __ZNKSt3__112basic_stringIcNS_11char_traitsIcEENS_9allocatorIcEEE4sizeB7v160006Ev, symObjAddr: 0x1844, symBinAddr: 0x100003AAC, symSize: 0x54 }
  - { offsetInCU: 0x8462, offset: 0x8462, size: 0x8, addend: 0x0, symName: __ZNKSt3__112basic_stringIcNS_11char_traitsIcEENS_9allocatorIcEEE15__get_long_sizeB7v160006Ev, symObjAddr: 0x1898, symBinAddr: 0x100003B00, symSize: 0x28 }
  - { offsetInCU: 0x8486, offset: 0x8486, size: 0x8, addend: 0x0, symName: __ZNKSt3__112basic_stringIcNS_11char_traitsIcEENS_9allocatorIcEEE16__get_short_sizeB7v160006Ev, symObjAddr: 0x18C0, symBinAddr: 0x100003B28, symSize: 0x34 }
...
