---
triple:          'arm64-apple-darwin'
binary-path:     '/Users/jaskarankainth/LLD/LLD/Rate-Limiter'
relocations:
  - { offsetInCU: 0x34BD, offset: 0x34BD, size: 0x8, addend: 0x0, symName: __ZNSt3__16chronogtB7v160006IxNS_5ratioILl1ELl1EEExS3_EEbRKNS0_8durationIT_T0_EERKNS4_IT1_T2_EE, symObjAddr: 0xF98, symBinAddr: 0x1000035A0, symSize: 0x30 }
  - { offsetInCU: 0x351E, offset: 0x351E, size: 0x8, addend: 0x0, symName: __ZNSt3__16chronoltB7v160006IxNS_5ratioILl1ELl1EEEeS3_EEbRKNS0_8durationIT_T0_EERKNS4_IT1_T2_EE, symObjAddr: 0x1080, symBinAddr: 0x100003688, symSize: 0x34 }
  - { offsetInCU: 0x357F, offset: 0x357F, size: 0x8, addend: 0x0, symName: __ZNSt3__16chrono13duration_castB7v160006INS0_8durationIxNS_5ratioILl1ELl1000000000EEEEExNS3_ILl1ELl1EEEEENS_9enable_ifIXsr13__is_durationIT_EE5valueES8_E4typeERKNS2_IT0_T1_EE, symObjAddr: 0x10B4, symBinAddr: 0x1000036BC, symSize: 0x30 }
  - { offsetInCU: 0x35C6, offset: 0x35C6, size: 0x8, addend: 0x0, symName: __ZNSt3__16chronoltB7v160006IxNS_5ratioILl1ELl1000000000EEExNS2_ILl1ELl1EEEEEbRKNS0_8durationIT_T0_EERKNS5_IT1_T2_EE, symObjAddr: 0x10E4, symBinAddr: 0x1000036EC, symSize: 0x34 }
  - { offsetInCU: 0x3627, offset: 0x3627, size: 0x8, addend: 0x0, symName: __ZNSt3__16chronoltB7v160006IxNS_5ratioILl1ELl1EEExS3_EEbRKNS0_8durationIT_T0_EERKNS4_IT1_T2_EE, symObjAddr: 0x1188, symBinAddr: 0x100003790, symSize: 0x34 }
  - { offsetInCU: 0x3705, offset: 0x3705, size: 0x8, addend: 0x0, symName: __ZNSt3__16chrono13duration_castB7v160006INS0_8durationIeNS_5ratioILl1ELl1EEEEExS4_EENS_9enable_ifIXsr13__is_durationIT_EE5valueES7_E4typeERKNS2_IT0_T1_EE, symObjAddr: 0x13D0, symBinAddr: 0x1000039D8, symSize: 0x30 }
  - { offsetInCU: 0x3836, offset: 0x3836, size: 0x8, addend: 0x0, symName: __ZNSt3__124__put_character_sequenceB7v160006IcNS_11char_traitsIcEEEERNS_13basic_ostreamIT_T0_EES7_PKS4_m, symObjAddr: 0x3E4, symBinAddr: 0x1000029EC, symSize: 0x1F4 }
  - { offsetInCU: 0x551F, offset: 0x551F, size: 0x8, addend: 0x0, symName: __ZNSt3__1lsB7v160006INS_11char_traitsIcEEEERNS_13basic_ostreamIcT_EES6_PKc, symObjAddr: 0x30, symBinAddr: 0x100002638, symSize: 0x48 }
  - { offsetInCU: 0x5565, offset: 0x5565, size: 0x8, addend: 0x0, symName: __ZNSt3__14endlB7v160006IcNS_11char_traitsIcEEEERNS_13basic_ostreamIT_T0_EES7_, symObjAddr: 0xA4, symBinAddr: 0x1000026AC, symSize: 0x58 }
  - { offsetInCU: 0x55AA, offset: 0x55AA, size: 0x8, addend: 0x0, symName: __ZNSt3__111this_thread9sleep_forB7v160006IxNS_5ratioILl1ELl1EEEEEvRKNS_6chrono8durationIT_T0_EE, symObjAddr: 0x220, symBinAddr: 0x100002828, symSize: 0xD8 }
  - { offsetInCU: 0x562F, offset: 0x562F, size: 0x8, addend: 0x0, symName: __ZNSt3__116__pad_and_outputB7v160006IcNS_11char_traitsIcEEEENS_19ostreambuf_iteratorIT_T0_EES6_PKS4_S8_S8_RNS_8ios_baseES4_, symObjAddr: 0x63C, symBinAddr: 0x100002C44, symSize: 0x248 }
  - { offsetInCU: 0x56FE, offset: 0x56FE, size: 0x8, addend: 0x0, symName: __ZNSt3__119__debug_db_insert_cB7v160006INS_12basic_stringIcNS_11char_traitsIcEENS_9allocatorIcEEEEEEvPT_, symObjAddr: 0xB04, symBinAddr: 0x10000310C, symSize: 0x10 }
  - { offsetInCU: 0x572F, offset: 0x572F, size: 0x8, addend: 0x0, symName: __ZNSt3__112__to_addressB7v160006IKcEEPT_S3_, symObjAddr: 0xBD0, symBinAddr: 0x1000031D8, symSize: 0x14 }
  - { offsetInCU: 0x5764, offset: 0x5764, size: 0x8, addend: 0x0, symName: __ZNSt3__130__libcpp_is_constant_evaluatedB7v160006Ev, symObjAddr: 0xCFC, symBinAddr: 0x100003304, symSize: 0xC }
  - { offsetInCU: 0x57B4, offset: 0x57B4, size: 0x8, addend: 0x0, symName: __ZNSt3__19use_facetB7v160006INS_5ctypeIcEEEERKT_RKNS_6localeE, symObjAddr: 0xEB4, symBinAddr: 0x1000034BC, symSize: 0x2C }
  - { offsetInCU: 0x5C83, offset: 0x5C83, size: 0x8, addend: 0x0, symName: __ZNSt3__118__constexpr_strlenB7v160006EPKc, symObjAddr: 0xF4C, symBinAddr: 0x100003554, symSize: 0x24 }
  - { offsetInCU: 0x62FD, offset: 0x62FD, size: 0x8, addend: 0x0, symName: __ZNKSt3__16chrono13__duration_ltINS0_8durationIxNS_5ratioILl1ELl1EEEEENS2_IeS4_EEEclB7v160006ERKS5_RKS6_, symObjAddr: 0x12C8, symBinAddr: 0x1000038D0, symSize: 0x6C }
  - { offsetInCU: 0x6378, offset: 0x6378, size: 0x8, addend: 0x0, symName: __ZNKSt3__16chrono15__duration_castINS0_8durationIxNS_5ratioILl1ELl1EEEEENS2_IxNS3_ILl1ELl1000000000EEEEENS3_ILl1000000000ELl1EEELb0ELb1EEclB7v160006ERKS5_, symObjAddr: 0x1444, symBinAddr: 0x100003A4C, symSize: 0x4C }
  - { offsetInCU: 0x63BF, offset: 0x63BF, size: 0x8, addend: 0x0, symName: __ZNKSt3__16chrono13__duration_ltINS0_8durationIxNS_5ratioILl1ELl1000000000EEEEENS2_IxNS3_ILl1ELl1EEEEEEclB7v160006ERKS5_RKS7_, symObjAddr: 0x14F4, symBinAddr: 0x100003AFC, symSize: 0x6C }
  - { offsetInCU: 0x84CC, offset: 0x84CC, size: 0x8, addend: 0x0, symName: __Z3APIv, symObjAddr: 0x0, symBinAddr: 0x100002608, symSize: 0x30 }
  - { offsetInCU: 0x84E5, offset: 0x84E5, size: 0x8, addend: 0x0, symName: __ZNSt3__113basic_ostreamIcNS_11char_traitsIcEEElsB7v160006EPFRS3_S4_E, symObjAddr: 0x78, symBinAddr: 0x100002680, symSize: 0x2C }
  - { offsetInCU: 0x8518, offset: 0x8518, size: 0x8, addend: 0x0, symName: _main, symObjAddr: 0xFC, symBinAddr: 0x100002704, symSize: 0xF0 }
  - { offsetInCU: 0x85C1, offset: 0x85C1, size: 0x8, addend: 0x0, symName: __ZN11RateLimiterC1Ei, symObjAddr: 0x1EC, symBinAddr: 0x1000027F4, symSize: 0x34 }
  - { offsetInCU: 0x8602, offset: 0x8602, size: 0x8, addend: 0x0, symName: __ZNSt3__16chrono8durationIxNS_5ratioILl1ELl1EEEEC1B7v160006IiEERKT_PNS_9enable_ifIXaasr14is_convertibleIS8_xEE5valueooL_ZNS_17integral_constantIbLb0EE5valueEEntsr23treat_as_floating_pointIS6_EE5valueEvE4typeE, symObjAddr: 0x2F8, symBinAddr: 0x100002900, symSize: 0x3C }
  - { offsetInCU: 0x864E, offset: 0x864E, size: 0x8, addend: 0x0, symName: __ZN11RateLimiter10addRequestEv, symObjAddr: 0x334, symBinAddr: 0x10000293C, symSize: 0x1C }
  - { offsetInCU: 0x8673, offset: 0x8673, size: 0x8, addend: 0x0, symName: __ZN11RateLimiter16isRequestAllowedEv, symObjAddr: 0x350, symBinAddr: 0x100002958, symSize: 0x6C }
  - { offsetInCU: 0x8698, offset: 0x8698, size: 0x8, addend: 0x0, symName: __ZN11RateLimiterC2Ei, symObjAddr: 0x3BC, symBinAddr: 0x1000029C4, symSize: 0x28 }
  - { offsetInCU: 0x86CF, offset: 0x86CF, size: 0x8, addend: 0x0, symName: __ZNSt3__111char_traitsIcE6lengthEPKc, symObjAddr: 0x5D8, symBinAddr: 0x100002BE0, symSize: 0x48 }
  - { offsetInCU: 0x8710, offset: 0x8710, size: 0x8, addend: 0x0, symName: __ZNKSt3__113basic_ostreamIcNS_11char_traitsIcEEE6sentrycvbB7v160006Ev, symObjAddr: 0x620, symBinAddr: 0x100002C28, symSize: 0x1C }
  - { offsetInCU: 0x8735, offset: 0x8735, size: 0x8, addend: 0x0, symName: __ZNSt3__119ostreambuf_iteratorIcNS_11char_traitsIcEEEC1B7v160006ERNS_13basic_ostreamIcS2_EE, symObjAddr: 0x884, symBinAddr: 0x100002E8C, symSize: 0x34 }
  - { offsetInCU: 0x876C, offset: 0x876C, size: 0x8, addend: 0x0, symName: __ZNKSt3__18ios_base5flagsB7v160006Ev, symObjAddr: 0x8B8, symBinAddr: 0x100002EC0, symSize: 0x18 }
  - { offsetInCU: 0x8793, offset: 0x8793, size: 0x8, addend: 0x0, symName: __ZNKSt3__19basic_iosIcNS_11char_traitsIcEEE4fillB7v160006Ev, symObjAddr: 0x8D0, symBinAddr: 0x100002ED8, symSize: 0x64 }
  - { offsetInCU: 0x87BA, offset: 0x87BA, size: 0x8, addend: 0x0, symName: __ZNKSt3__119ostreambuf_iteratorIcNS_11char_traitsIcEEE6failedB7v160006Ev, symObjAddr: 0x934, symBinAddr: 0x100002F3C, symSize: 0x24 }
  - { offsetInCU: 0x87DE, offset: 0x87DE, size: 0x8, addend: 0x0, symName: __ZNSt3__19basic_iosIcNS_11char_traitsIcEEE8setstateB7v160006Ej, symObjAddr: 0x958, symBinAddr: 0x100002F60, symSize: 0x2C }
  - { offsetInCU: 0x8812, offset: 0x8812, size: 0x8, addend: 0x0, symName: __ZNKSt3__18ios_base5widthB7v160006Ev, symObjAddr: 0x990, symBinAddr: 0x100002F98, symSize: 0x18 }
  - { offsetInCU: 0x8838, offset: 0x8838, size: 0x8, addend: 0x0, symName: __ZNSt3__115basic_streambufIcNS_11char_traitsIcEEE5sputnB7v160006EPKcl, symObjAddr: 0x9A8, symBinAddr: 0x100002FB0, symSize: 0x3C }
  - { offsetInCU: 0x8879, offset: 0x8879, size: 0x8, addend: 0x0, symName: __ZNSt3__112basic_stringIcNS_11char_traitsIcEENS_9allocatorIcEEEC1B7v160006Emc, symObjAddr: 0x9E4, symBinAddr: 0x100002FEC, symSize: 0x3C }
  - { offsetInCU: 0x88BF, offset: 0x88BF, size: 0x8, addend: 0x0, symName: __ZNKSt3__112basic_stringIcNS_11char_traitsIcEENS_9allocatorIcEEE4dataB7v160006Ev, symObjAddr: 0xA20, symBinAddr: 0x100003028, symSize: 0x28 }
  - { offsetInCU: 0x88E4, offset: 0x88E4, size: 0x8, addend: 0x0, symName: __ZNSt3__18ios_base5widthB7v160006El, symObjAddr: 0xA48, symBinAddr: 0x100003050, symSize: 0x2C }
  - { offsetInCU: 0x8929, offset: 0x8929, size: 0x8, addend: 0x0, symName: __ZNSt3__112basic_stringIcNS_11char_traitsIcEENS_9allocatorIcEEEC2B7v160006Emc, symObjAddr: 0xA74, symBinAddr: 0x10000307C, symSize: 0x54 }
  - { offsetInCU: 0x8975, offset: 0x8975, size: 0x8, addend: 0x0, symName: __ZNSt3__117__compressed_pairINS_12basic_stringIcNS_11char_traitsIcEENS_9allocatorIcEEE5__repES5_EC1B7v160006INS_18__default_init_tagESA_EEOT_OT0_, symObjAddr: 0xAC8, symBinAddr: 0x1000030D0, symSize: 0x3C }
  - { offsetInCU: 0x89CC, offset: 0x89CC, size: 0x8, addend: 0x0, symName: __ZNSt3__117__compressed_pairINS_12basic_stringIcNS_11char_traitsIcEENS_9allocatorIcEEE5__repES5_EC2B7v160006INS_18__default_init_tagESA_EEOT_OT0_, symObjAddr: 0xB14, symBinAddr: 0x10000311C, symSize: 0x3C }
  - { offsetInCU: 0x8A23, offset: 0x8A23, size: 0x8, addend: 0x0, symName: __ZNSt3__122__compressed_pair_elemINS_12basic_stringIcNS_11char_traitsIcEENS_9allocatorIcEEE5__repELi0ELb0EEC2B7v160006ENS_18__default_init_tagE, symObjAddr: 0xB50, symBinAddr: 0x100003158, symSize: 0x14 }
  - { offsetInCU: 0x8A57, offset: 0x8A57, size: 0x8, addend: 0x0, symName: __ZNSt3__122__compressed_pair_elemINS_9allocatorIcEELi1ELb1EEC2B7v160006ENS_18__default_init_tagE, symObjAddr: 0xB64, symBinAddr: 0x10000316C, symSize: 0x2C }
  - { offsetInCU: 0x8A8B, offset: 0x8A8B, size: 0x8, addend: 0x0, symName: __ZNSt3__19allocatorIcEC2B7v160006Ev, symObjAddr: 0xB90, symBinAddr: 0x100003198, symSize: 0x2C }
  - { offsetInCU: 0x8AB4, offset: 0x8AB4, size: 0x8, addend: 0x0, symName: __ZNSt3__116__non_trivial_ifILb1ENS_9allocatorIcEEEC2B7v160006Ev, symObjAddr: 0xBBC, symBinAddr: 0x1000031C4, symSize: 0x14 }
  - { offsetInCU: 0x8ADC, offset: 0x8ADC, size: 0x8, addend: 0x0, symName: __ZNKSt3__112basic_stringIcNS_11char_traitsIcEENS_9allocatorIcEEE13__get_pointerB7v160006Ev, symObjAddr: 0xBE4, symBinAddr: 0x1000031EC, symSize: 0x54 }
  - { offsetInCU: 0x8B00, offset: 0x8B00, size: 0x8, addend: 0x0, symName: __ZNKSt3__112basic_stringIcNS_11char_traitsIcEENS_9allocatorIcEEE9__is_longB7v160006Ev, symObjAddr: 0xC38, symBinAddr: 0x100003240, symSize: 0x74 }
  - { offsetInCU: 0x8B24, offset: 0x8B24, size: 0x8, addend: 0x0, symName: __ZNKSt3__112basic_stringIcNS_11char_traitsIcEENS_9allocatorIcEEE18__get_long_pointerB7v160006Ev, symObjAddr: 0xCAC, symBinAddr: 0x1000032B4, symSize: 0x28 }
  - { offsetInCU: 0x8B48, offset: 0x8B48, size: 0x8, addend: 0x0, symName: __ZNKSt3__112basic_stringIcNS_11char_traitsIcEENS_9allocatorIcEEE19__get_short_pointerB7v160006Ev, symObjAddr: 0xCD4, symBinAddr: 0x1000032DC, symSize: 0x28 }
  - { offsetInCU: 0x8B6C, offset: 0x8B6C, size: 0x8, addend: 0x0, symName: __ZNKSt3__117__compressed_pairINS_12basic_stringIcNS_11char_traitsIcEENS_9allocatorIcEEE5__repES5_E5firstB7v160006Ev, symObjAddr: 0xD08, symBinAddr: 0x100003310, symSize: 0x24 }
  - { offsetInCU: 0x8B91, offset: 0x8B91, size: 0x8, addend: 0x0, symName: __ZNKSt3__122__compressed_pair_elemINS_12basic_stringIcNS_11char_traitsIcEENS_9allocatorIcEEE5__repELi0ELb0EE5__getB7v160006Ev, symObjAddr: 0xD2C, symBinAddr: 0x100003334, symSize: 0x14 }
  - { offsetInCU: 0x8BB6, offset: 0x8BB6, size: 0x8, addend: 0x0, symName: __ZNSt3__114pointer_traitsIPKcE10pointer_toB7v160006ERS1_, symObjAddr: 0xD40, symBinAddr: 0x100003348, symSize: 0x14 }
  - { offsetInCU: 0x8BD9, offset: 0x8BD9, size: 0x8, addend: 0x0, symName: __ZNSt3__119ostreambuf_iteratorIcNS_11char_traitsIcEEEC2B7v160006ERNS_13basic_ostreamIcS2_EE, symObjAddr: 0xD54, symBinAddr: 0x10000335C, symSize: 0x68 }
  - { offsetInCU: 0x8C10, offset: 0x8C10, size: 0x8, addend: 0x0, symName: __ZNKSt3__19basic_iosIcNS_11char_traitsIcEEE5rdbufB7v160006Ev, symObjAddr: 0xDBC, symBinAddr: 0x1000033C4, symSize: 0x24 }
  - { offsetInCU: 0x8C37, offset: 0x8C37, size: 0x8, addend: 0x0, symName: __ZNKSt3__18ios_base5rdbufB7v160006Ev, symObjAddr: 0xDE0, symBinAddr: 0x1000033E8, symSize: 0x18 }
  - { offsetInCU: 0x8C5C, offset: 0x8C5C, size: 0x8, addend: 0x0, symName: __ZNSt3__111char_traitsIcE11eq_int_typeEii, symObjAddr: 0xDF8, symBinAddr: 0x100003400, symSize: 0x28 }
  - { offsetInCU: 0x8C8D, offset: 0x8C8D, size: 0x8, addend: 0x0, symName: __ZNSt3__111char_traitsIcE3eofEv, symObjAddr: 0xE20, symBinAddr: 0x100003428, symSize: 0x8 }
  - { offsetInCU: 0x8CA1, offset: 0x8CA1, size: 0x8, addend: 0x0, symName: __ZNKSt3__19basic_iosIcNS_11char_traitsIcEEE5widenB7v160006Ec, symObjAddr: 0xE28, symBinAddr: 0x100003430, symSize: 0x8C }
  - { offsetInCU: 0x8D0D, offset: 0x8D0D, size: 0x8, addend: 0x0, symName: __ZNKSt3__15ctypeIcE5widenB7v160006Ec, symObjAddr: 0xEE0, symBinAddr: 0x1000034E8, symSize: 0x38 }
  - { offsetInCU: 0x8D41, offset: 0x8D41, size: 0x8, addend: 0x0, symName: __ZNSt3__18ios_base8setstateB7v160006Ej, symObjAddr: 0xF18, symBinAddr: 0x100003520, symSize: 0x34 }
  - { offsetInCU: 0x8D77, offset: 0x8D77, size: 0x8, addend: 0x0, symName: __ZNSt3__16chrono8durationIxNS_5ratioILl1ELl1EEEEC2B7v160006IiEERKT_PNS_9enable_ifIXaasr14is_convertibleIS8_xEE5valueooL_ZNS_17integral_constantIbLb0EE5valueEEntsr23treat_as_floating_pointIS6_EE5valueEvE4typeE, symObjAddr: 0xF70, symBinAddr: 0x100003578, symSize: 0x28 }
  - { offsetInCU: 0x8DC3, offset: 0x8DC3, size: 0x8, addend: 0x0, symName: __ZNSt3__16chrono8durationIxNS_5ratioILl1ELl1EEEE4zeroB7v160006Ev, symObjAddr: 0xFC8, symBinAddr: 0x1000035D0, symSize: 0x50 }
  - { offsetInCU: 0x8DE1, offset: 0x8DE1, size: 0x8, addend: 0x0, symName: __ZNSt3__16chrono8durationIeNS_5ratioILl1ELl1EEEEC1B7v160006IeEERKT_PNS_9enable_ifIXaasr14is_convertibleIS8_eEE5valueooL_ZNS_17integral_constantIbLb1EE5valueEEntsr23treat_as_floating_pointIS6_EE5valueEvE4typeE, symObjAddr: 0x1018, symBinAddr: 0x100003620, symSize: 0x3C }
  - { offsetInCU: 0x8E2D, offset: 0x8E2D, size: 0x8, addend: 0x0, symName: __ZNSt3__16chrono8durationIxNS_5ratioILl1ELl1000000000EEEEC1B7v160006Ev, symObjAddr: 0x1054, symBinAddr: 0x10000365C, symSize: 0x2C }
  - { offsetInCU: 0x8E56, offset: 0x8E56, size: 0x8, addend: 0x0, symName: __ZNSt3__16chrono8durationIxNS_5ratioILl1ELl1000000000EEEEppB7v160006Ev, symObjAddr: 0x1118, symBinAddr: 0x100003720, symSize: 0x20 }
  - { offsetInCU: 0x8E7B, offset: 0x8E7B, size: 0x8, addend: 0x0, symName: __ZNSt3__16chrono8durationIxNS_5ratioILl1ELl1000000000EEEE3maxB7v160006Ev, symObjAddr: 0x1138, symBinAddr: 0x100003740, symSize: 0x50 }
  - { offsetInCU: 0x8E98, offset: 0x8E98, size: 0x8, addend: 0x0, symName: __ZNKSt3__16chrono13__duration_ltINS0_8durationIxNS_5ratioILl1ELl1EEEEES5_EclB7v160006ERKS5_S8_, symObjAddr: 0x11BC, symBinAddr: 0x1000037C4, symSize: 0x4C }
  - { offsetInCU: 0x8EDB, offset: 0x8EDB, size: 0x8, addend: 0x0, symName: __ZNKSt3__16chrono8durationIxNS_5ratioILl1ELl1EEEE5countB7v160006Ev, symObjAddr: 0x1208, symBinAddr: 0x100003810, symSize: 0x18 }
  - { offsetInCU: 0x8F00, offset: 0x8F00, size: 0x8, addend: 0x0, symName: __ZNSt3__16chrono15duration_valuesIxE4zeroB7v160006Ev, symObjAddr: 0x1220, symBinAddr: 0x100003828, symSize: 0x8 }
  - { offsetInCU: 0x8F1E, offset: 0x8F1E, size: 0x8, addend: 0x0, symName: __ZNSt3__16chrono8durationIxNS_5ratioILl1ELl1EEEEC1B7v160006IxEERKT_PNS_9enable_ifIXaasr14is_convertibleIS8_xEE5valueooL_ZNS_17integral_constantIbLb0EE5valueEEntsr23treat_as_floating_pointIS6_EE5valueEvE4typeE, symObjAddr: 0x1228, symBinAddr: 0x100003830, symSize: 0x3C }
  - { offsetInCU: 0x8F6A, offset: 0x8F6A, size: 0x8, addend: 0x0, symName: __ZNSt3__16chrono8durationIxNS_5ratioILl1ELl1EEEEC2B7v160006IxEERKT_PNS_9enable_ifIXaasr14is_convertibleIS8_xEE5valueooL_ZNS_17integral_constantIbLb0EE5valueEEntsr23treat_as_floating_pointIS6_EE5valueEvE4typeE, symObjAddr: 0x1264, symBinAddr: 0x10000386C, symSize: 0x28 }
  - { offsetInCU: 0x8FB6, offset: 0x8FB6, size: 0x8, addend: 0x0, symName: __ZNSt3__16chrono8durationIeNS_5ratioILl1ELl1EEEEC2B7v160006IeEERKT_PNS_9enable_ifIXaasr14is_convertibleIS8_eEE5valueooL_ZNS_17integral_constantIbLb1EE5valueEEntsr23treat_as_floating_pointIS6_EE5valueEvE4typeE, symObjAddr: 0x128C, symBinAddr: 0x100003894, symSize: 0x28 }
  - { offsetInCU: 0x9002, offset: 0x9002, size: 0x8, addend: 0x0, symName: __ZNSt3__16chrono8durationIxNS_5ratioILl1ELl1000000000EEEEC2B7v160006Ev, symObjAddr: 0x12B4, symBinAddr: 0x1000038BC, symSize: 0x14 }
  - { offsetInCU: 0x902B, offset: 0x902B, size: 0x8, addend: 0x0, symName: __ZNSt3__16chrono8durationIeNS_5ratioILl1ELl1EEEEC1B7v160006IxS3_EERKNS1_IT_T0_EEPNS_9enable_ifIXaasr13__no_overflowIS7_S3_EE5valueooL_ZNS_17integral_constantIbLb1EE5valueEEaaeqsr13__no_overflowIS7_S3_E4typeE3denLi1Entsr23treat_as_floating_pointIS6_EE5valueEvE4typeE, symObjAddr: 0x1334, symBinAddr: 0x10000393C, symSize: 0x3C }
  - { offsetInCU: 0x9081, offset: 0x9081, size: 0x8, addend: 0x0, symName: __ZNKSt3__16chrono8durationIeNS_5ratioILl1ELl1EEEE5countB7v160006Ev, symObjAddr: 0x1370, symBinAddr: 0x100003978, symSize: 0x18 }
  - { offsetInCU: 0x90A6, offset: 0x90A6, size: 0x8, addend: 0x0, symName: __ZNSt3__16chrono8durationIeNS_5ratioILl1ELl1EEEEC2B7v160006IxS3_EERKNS1_IT_T0_EEPNS_9enable_ifIXaasr13__no_overflowIS7_S3_EE5valueooL_ZNS_17integral_constantIbLb1EE5valueEEaaeqsr13__no_overflowIS7_S3_E4typeE3denLi1Entsr23treat_as_floating_pointIS6_EE5valueEvE4typeE, symObjAddr: 0x1388, symBinAddr: 0x100003990, symSize: 0x48 }
  - { offsetInCU: 0x9105, offset: 0x9105, size: 0x8, addend: 0x0, symName: __ZNKSt3__16chrono15__duration_castINS0_8durationIxNS_5ratioILl1ELl1EEEEENS2_IeS4_EES4_Lb1ELb1EEclB7v160006ERKS5_, symObjAddr: 0x1400, symBinAddr: 0x100003A08, symSize: 0x44 }
  - { offsetInCU: 0x9138, offset: 0x9138, size: 0x8, addend: 0x0, symName: __ZNSt3__16chrono8durationIxNS_5ratioILl1ELl1000000000EEEEC1B7v160006IxEERKT_PNS_9enable_ifIXaasr14is_convertibleIS8_xEE5valueooL_ZNS_17integral_constantIbLb0EE5valueEEntsr23treat_as_floating_pointIS6_EE5valueEvE4typeE, symObjAddr: 0x1490, symBinAddr: 0x100003A98, symSize: 0x3C }
  - { offsetInCU: 0x9184, offset: 0x9184, size: 0x8, addend: 0x0, symName: __ZNSt3__16chrono8durationIxNS_5ratioILl1ELl1000000000EEEEC2B7v160006IxEERKT_PNS_9enable_ifIXaasr14is_convertibleIS8_xEE5valueooL_ZNS_17integral_constantIbLb0EE5valueEEntsr23treat_as_floating_pointIS6_EE5valueEvE4typeE, symObjAddr: 0x14CC, symBinAddr: 0x100003AD4, symSize: 0x28 }
  - { offsetInCU: 0x91D0, offset: 0x91D0, size: 0x8, addend: 0x0, symName: __ZNKSt3__16chrono8durationIxNS_5ratioILl1ELl1000000000EEEE5countB7v160006Ev, symObjAddr: 0x1560, symBinAddr: 0x100003B68, symSize: 0x18 }
  - { offsetInCU: 0x91F5, offset: 0x91F5, size: 0x8, addend: 0x0, symName: __ZNSt3__16chrono8durationIxNS_5ratioILl1ELl1000000000EEEEC1B7v160006IxNS2_ILl1ELl1EEEEERKNS1_IT_T0_EEPNS_9enable_ifIXaasr13__no_overflowIS8_S3_EE5valueooL_ZNS_17integral_constantIbLb0EE5valueEEaaeqsr13__no_overflowIS8_S3_E4typeE3denLi1Entsr23treat_as_floating_pointIS7_EE5valueEvE4typeE, symObjAddr: 0x1578, symBinAddr: 0x100003B80, symSize: 0x3C }
  - { offsetInCU: 0x924B, offset: 0x924B, size: 0x8, addend: 0x0, symName: __ZNSt3__16chrono8durationIxNS_5ratioILl1ELl1000000000EEEEC2B7v160006IxNS2_ILl1ELl1EEEEERKNS1_IT_T0_EEPNS_9enable_ifIXaasr13__no_overflowIS8_S3_EE5valueooL_ZNS_17integral_constantIbLb0EE5valueEEaaeqsr13__no_overflowIS8_S3_E4typeE3denLi1Entsr23treat_as_floating_pointIS7_EE5valueEvE4typeE, symObjAddr: 0x15B4, symBinAddr: 0x100003BBC, symSize: 0x50 }
  - { offsetInCU: 0x92A1, offset: 0x92A1, size: 0x8, addend: 0x0, symName: __ZNSt3__16chrono15duration_valuesIxE3maxB7v160006Ev, symObjAddr: 0x1604, symBinAddr: 0x100003C0C, symSize: 0x14 }
  - { offsetInCU: 0x92B5, offset: 0x92B5, size: 0x8, addend: 0x0, symName: __ZNSt3__114numeric_limitsIxE3maxB7v160006Ev, symObjAddr: 0x1618, symBinAddr: 0x100003C20, symSize: 0x14 }
  - { offsetInCU: 0x92C9, offset: 0x92C9, size: 0x8, addend: 0x0, symName: __ZNSt3__123__libcpp_numeric_limitsIxLb1EE3maxB7v160006Ev, symObjAddr: 0x162C, symBinAddr: 0x100003C34, symSize: 0x8 }
...
